ccopy_reg
_reconstructor
p0
(csklearn.pipeline
Pipeline
p1
c__builtin__
object
p2
Ntp3
Rp4
(dp5
S'steps'
p6
(lp7
(S'log transforming'
p8
g0
(ctools.LogTransform
LogTransform
p9
g2
Ntp10
Rp11
(dp12
S'test_skewness'
p13
I01
sS'skewness'
p14
g0
(cpandas.core.series
Series
p15
g2
Ntp16
Rp17
(dp18
S'_metadata'
p19
(lp20
S'name'
p21
asS'_data'
p22
g0
(cpandas.core.internals
SingleBlockManager
p23
g2
Ntp24
Rp25
((lp26
cpandas.indexes.base
_new_Index
p27
(cpandas.indexes.base
Index
p28
(dp29
S'data'
p30
cnumpy.core.multiarray
_reconstruct
p31
(cnumpy
ndarray
p32
(I0
tp33
S'b'
p34
tp35
Rp36
(I1
(L0L
tp37
cnumpy
dtype
p38
(S'O8'
p39
I0
I1
tp40
Rp41
(I3
S'|'
p42
NNNI-1
I-1
I63
tp43
bI00
(lp44
tp45
bsg21
Nstp46
Rp47
a(lp48
g31
(g32
(I0
tp49
g34
tp50
Rp51
(I1
(L0L
tp52
g38
(S'f8'
p53
I0
I1
tp54
Rp55
(I3
S'<'
p56
NNNI-1
I-1
I0
tp57
bI00
S''
p58
tp59
ba(lp60
g27
(g28
(dp61
g30
g31
(g32
(I0
tp62
g34
tp63
Rp64
(I1
(L0L
tp65
g41
I00
(lp66
tp67
bsg21
Nstp68
Rp69
a(dp70
S'0.14.1'
p71
(dp72
S'axes'
p73
g26
sS'blocks'
p74
(lp75
(dp76
S'mgr_locs'
p77
g31
(g32
(I0
tp78
g34
tp79
Rp80
(I1
(L0L
tp81
g38
(S'i8'
p82
I0
I1
tp83
Rp84
(I3
S'<'
p85
NNNI-1
I-1
I0
tp86
bI00
g58
tp87
bsS'values'
p88
g51
sasstp89
bsS'_typ'
p90
S'series'
p91
sg21
NsbsS'to_add_one'
p92
(lp93
sbtp94
a(S'impute nans'
p95
g0
(ctools.ImputeToValue
ImputeToValue
p96
g2
Ntp97
Rp98
(dp99
S'value'
p100
I0
sbtp101
a(S'minmax scaling'
p102
g0
(ctools.MinMaxNA
MinMaxNA
p103
g2
Ntp104
Rp105
(dp106
S'col_max'
p107
(dp108
sS'col_min'
p109
(dp110
sbtp111
a(S'kbest'
p112
g0
(csklearn.feature_selection.univariate_selection
SelectKBest
p113
g2
Ntp114
Rp115
(dp116
S'k'
p117
I14
sS'score_func'
p118
csklearn.feature_selection.univariate_selection
f_classif
p119
sbtp120
a(S'classify'
p121
g0
(csklearn.linear_model.logistic
LogisticRegression
p122
g2
Ntp123
Rp124
(dp125
S'warm_start'
p126
I00
sS'C'
p127
I1
sS'max_iter'
p128
I100
sS'verbose'
p129
I0
sS'intercept_scaling'
p130
I1
sS'dual'
p131
I00
sS'fit_intercept'
p132
I01
sS'solver'
p133
S'liblinear'
p134
sS'penalty'
p135
S'l2'
p136
sS'multi_class'
p137
S'ovr'
p138
sS'random_state'
p139
NsS'tol'
p140
F1e-16
sS'n_jobs'
p141
I1
sS'class_weight'
p142
S'balanced'
p143
sbtp144
asb.