ccopy_reg
_reconstructor
p0
(csklearn.pipeline
Pipeline
p1
c__builtin__
object
p2
Ntp3
Rp4
(dp5
S'steps'
p6
(lp7
(S'impute nans'
p8
g0
(ctools.customTransformers
ImputeToValue
p9
g2
Ntp10
Rp11
(dp12
S'value'
p13
I0
sbtp14
a(S'log transforming'
p15
g0
(ctools.customTransformers
LogTransform
p16
g2
Ntp17
Rp18
(dp19
S'test_skewness'
p20
I01
sS'skewness'
p21
g0
(cpandas.core.series
Series
p22
g2
Ntp23
Rp24
(dp25
S'_metadata'
p26
(lp27
S'name'
p28
asS'_data'
p29
g0
(cpandas.core.internals
SingleBlockManager
p30
g2
Ntp31
Rp32
((lp33
cpandas.indexes.base
_new_Index
p34
(cpandas.indexes.base
Index
p35
(dp36
S'data'
p37
cnumpy.core.multiarray
_reconstruct
p38
(cnumpy
ndarray
p39
(I0
tp40
S'b'
p41
tp42
Rp43
(I1
(L0L
tp44
cnumpy
dtype
p45
(S'O8'
p46
I0
I1
tp47
Rp48
(I3
S'|'
p49
NNNI-1
I-1
I63
tp50
bI00
(lp51
tp52
bsg28
Nstp53
Rp54
a(lp55
g38
(g39
(I0
tp56
g41
tp57
Rp58
(I1
(L0L
tp59
g45
(S'f8'
p60
I0
I1
tp61
Rp62
(I3
S'<'
p63
NNNI-1
I-1
I0
tp64
bI00
S''
p65
tp66
ba(lp67
g34
(g35
(dp68
g37
g38
(g39
(I0
tp69
g41
tp70
Rp71
(I1
(L0L
tp72
g48
I00
(lp73
tp74
bsg28
Nstp75
Rp76
a(dp77
S'0.14.1'
p78
(dp79
S'axes'
p80
g33
sS'blocks'
p81
(lp82
(dp83
S'mgr_locs'
p84
g38
(g39
(I0
tp85
g41
tp86
Rp87
(I1
(L0L
tp88
g45
(S'i8'
p89
I0
I1
tp90
Rp91
(I3
S'<'
p92
NNNI-1
I-1
I0
tp93
bI00
g65
tp94
bsS'values'
p95
g58
sasstp96
bsS'_typ'
p97
S'series'
p98
sg28
NsbsS'to_add_one'
p99
(lp100
sbtp101
a(S'minmax scaling'
p102
g0
(ctools.customTransformers
MinMaxNA
p103
g2
Ntp104
Rp105
(dp106
S'col_max'
p107
(dp108
sS'col_min'
p109
(dp110
sbtp111
a(S'kbest'
p112
g0
(csklearn.feature_selection.univariate_selection
SelectKBest
p113
g2
Ntp114
Rp115
(dp116
S'k'
p117
I16
sS'score_func'
p118
csklearn.feature_selection.univariate_selection
f_classif
p119
sbtp120
a(S'pca'
p121
g0
(csklearn.decomposition.pca
PCA
p122
g2
Ntp123
Rp124
(dp125
S'copy'
p126
I01
sS'n_components'
p127
I15
sS'whiten'
p128
I00
sbtp129
a(S'classify'
p130
g0
(csklearn.linear_model.stochastic_gradient
SGDClassifier
p131
g2
Ntp132
Rp133
(dp134
S'warm_start'
p135
I00
sS'loss'
p136
S'log'
p137
sS'C'
p138
F1.0
sS'classes_'
p139
NsS'shuffle'
p140
I01
sS'verbose'
p141
I0
sS'n_jobs'
p142
I1
sS'fit_intercept'
p143
I01
sS'epsilon'
p144
F0.1
sS'learning_rate'
p145
S'optimal'
p146
sS'n_iter'
p147
I50
sS'penalty'
p148
S'l1'
p149
sS'power_t'
p150
F0.5
sS'random_state'
p151
NsS't_'
p152
NsS'eta0'
p153
F0.0
sS'l1_ratio'
p154
F0.15
sS'alpha'
p155
F0.01
sS'coef_'
p156
NsS'average'
p157
I00
sS'class_weight'
p158
S'balanced'
p159
sbtp160
asb.