(lp0
S'poi'
p1
aS'bonus'
p2
aS'deferred_income'
p3
aS'exercised_stock_options'
p4
aS'expenses'
p5
aS'long_term_incentive'
p6
aS'other'
p7
aS'restricted_stock'
p8
aS'salary'
p9
aS'restricted_stock_deferred_bin'
p10
aS'shared_receipt_with_poi'
p11
aS'to_messages'
p12
a.